(lp1
(lp2
I11
aI0
aI0
aI0
aa(lp3
I11
aI5
aI0
aI0
aa(lp4
I14
aI0
aI0
aI0
aa(lp5
I28
aI4
aI0
aI0
aa(lp6
I17
aI4
aI0
aI0
aa(lp7
I24
aI5
aI0
aI0
aa(lp8
I23
aI2
aI0
aI0
aa(lp9
I13
aI2
aI0
aI0
aa(lp10
I23
aI3
aI0
aI0
aa(lp11
I19
aI3
aI0
aI0
aa(lp12
I16
aI1
aI0
aI0
aa(lp13
I25
aI4
aI0
aI0
aa(lp14
I15
aI1
aI0
aI0
aa(lp15
I27
aI4
aI0
aI0
aa(lp16
I31
aI4
aI0
aI0
aa(lp17
I11
aI4
aI0
aI0
aa(lp18
I14
aI6
aI0
aI0
aa(lp19
I10
aI0
aI0
aI0
aa(lp20
I17
aI1
aI0
aI0
aa(lp21
I19
aI3
aI0
aI0
aa(lp22
I21
aI2
aI0
aI0
aa(lp23
I13
aI1
aI0
aI0
aa(lp24
I19
aI0
aI0
aI0
aa(lp25
I9
aI0
aI0
aI0
aa(lp26
I25
aI1
aI0
aI0
aa(lp27
I11
aI1
aI0
aI0
aa(lp28
I20
aI3
aI0
aI0
aa(lp29
I19
aI2
aI0
aI0
aa(lp30
I4
aI2
aI0
aI0
aa(lp31
I27
aI10
aI0
aI0
aa(lp32
I4
aI0
aI0
aI0
aa(lp33
I11
aI1
aI0
aI0
aa(lp34
I9
aI1
aI0
aI0
aa(lp35
I5
aI0
aI0
aI0
aa(lp36
I6
aI0
aI0
aI0
aa(lp37
I26
aI5
aI0
aI0
aa(lp38
I18
aI2
aI0
aI0
aa(lp39
I20
aI0
aI0
aI0
aa(lp40
I69
aI18
aI0
aI0
aa(lp41
I10
aI0
aI0
aI0
aa(lp42
I4
aI1
aI0
aI0
aa(lp43
I2
aI0
aI0
aI0
aa(lp44
I11
aI1
aI0
aI0
aa(lp45
I12
aI0
aI0
aI0
aa(lp46
I14
aI4
aI0
aI0
aa(lp47
I10
aI0
aI0
aI0
aa(lp48
I1
aI0
aI0
aI0
aa(lp49
I40
aI8
aI0
aI0
aa(lp50
I70
aI9
aI0
aI0
aa(lp51
I0
aI0
aI0
aI0
aa(lp52
I0
aI0
aI0
aI0
aa(lp53
I0
aI0
aI0
aI0
aa(lp54
I0
aI0
aI0
aI0
aa(lp55
I0
aI0
aI0
aI0
aa(lp56
I0
aI0
aI0
aI0
aa(lp57
I0
aI0
aI0
aI0
aa(lp58
I0
aI0
aI0
aI0
aa(lp59
I0
aI0
aI0
aI0
aa(lp60
I0
aI0
aI0
aI0
aa.